; Function Attrs: nounwind uwtable
define hidden range(i32 0, 2) i32 @CBB_add_asn1(ptr noundef captures(none) %0, ptr noundef %1, i8 noundef zeroext %2) local_unnamed_addr #8 {
  %4 = and i8 %2, 31
  %5 = icmp eq i8 %4, 31
  br i1 %5, label %CBB_add_u8.exit.thread, label %6

6:                                                ; preds = %3
  %7 = tail call i32 @CBB_flush(ptr noundef %0)
  %.not = icmp eq i32 %7, 0
  br i1 %.not, label %CBB_add_u8.exit.thread, label %8

8:                                                ; preds = %6
  %9 = tail call i32 @CBB_flush(ptr noundef %0)
  %.not.i = icmp eq i32 %9, 0
  br i1 %.not.i, label %CBB_add_u8.exit.thread, label %10

10:                                               ; preds = %8
  %11 = load ptr, ptr %0, align 8, !tbaa !16
  %12 = icmp eq ptr %11, null
  br i1 %12, label %CBB_add_u8.exit.thread, label %13

13:                                               ; preds = %10
  %14 = getelementptr inbounds nuw i8, ptr %11, i64 8
  %15 = load i64, ptr %14, align 8, !tbaa !13
  %16 = add i64 %15, 1
  %17 = icmp eq i64 %15, -1
  br i1 %17, label %CBB_add_u8.exit.thread, label %18

18:                                               ; preds = %13
  %19 = getelementptr inbounds nuw i8, ptr %11, i64 16
  %20 = load i64, ptr %19, align 8, !tbaa !14
  %21 = icmp ugt i64 %16, %20
  br i1 %21, label %22, label %.cbb_buffer_add.exit_crit_edge.i.i

.cbb_buffer_add.exit_crit_edge.i.i:               ; preds = %18
  %.pre.i.i = load ptr, ptr %11, align 8, !tbaa !6
  br label %32

22:                                               ; preds = %18
  %23 = getelementptr inbounds nuw i8, ptr %11, i64 24
  %24 = load i8, ptr %23, align 8, !tbaa !15
  %.not.i.i.i.i = icmp eq i8 %24, 0
  br i1 %.not.i.i.i.i, label %CBB_add_u8.exit.thread, label %25

25:                                               ; preds = %22
  %26 = shl i64 %20, 1
  %27 = icmp slt i64 %20, 0
  %28 = tail call i64 @llvm.umax.i64(i64 %26, i64 %16)
  %.026.i.i.i.i = select i1 %27, i64 %16, i64 %28
  %29 = load ptr, ptr %11, align 8, !tbaa !6
  %30 = tail call ptr @realloc(ptr noundef %29, i64 noundef %.026.i.i.i.i) #16
  %31 = icmp eq ptr %30, null
  br i1 %31, label %CBB_add_u8.exit.thread, label %.critedge.i.i.i.i

.critedge.i.i.i.i:                                ; preds = %25
  store ptr %30, ptr %11, align 8, !tbaa !6
  store i64 %.026.i.i.i.i, ptr %19, align 8, !tbaa !14
  %.pre.pre.i.i.i = load i64, ptr %14, align 8, !tbaa !13
  %.pre20.i.i = add i64 %.pre.pre.i.i.i, 1
  br label %32

32:                                               ; preds = %.critedge.i.i.i.i, %.cbb_buffer_add.exit_crit_edge.i.i
  %.pre-phi.i.i = phi i64 [ %16, %.cbb_buffer_add.exit_crit_edge.i.i ], [ %.pre20.i.i, %.critedge.i.i.i.i ]
  %33 = phi ptr [ %.pre.i.i, %.cbb_buffer_add.exit_crit_edge.i.i ], [ %30, %.critedge.i.i.i.i ]
  %.pre.i.i.i = phi i64 [ %15, %.cbb_buffer_add.exit_crit_edge.i.i ], [ %.pre.pre.i.i.i, %.critedge.i.i.i.i ]
  %34 = getelementptr inbounds nuw i8, ptr %33, i64 %.pre.i.i.i
  store i64 %.pre-phi.i.i, ptr %14, align 8, !tbaa !13
  store i8 %2, ptr %34, align 1, !tbaa !27
  %35 = load ptr, ptr %0, align 8, !tbaa !16
  %36 = getelementptr inbounds nuw i8, ptr %35, i64 8
  %37 = load i64, ptr %36, align 8, !tbaa !13
  %38 = tail call i32 @CBB_flush(ptr noundef nonnull %0)
  %.not.i17 = icmp eq i32 %38, 0
  br i1 %.not.i17, label %CBB_add_u8.exit.thread, label %39

39:                                               ; preds = %32
  %40 = load ptr, ptr %0, align 8, !tbaa !16
  %41 = icmp eq ptr %40, null
  br i1 %41, label %CBB_add_u8.exit.thread, label %42

42:                                               ; preds = %39
  %43 = getelementptr inbounds nuw i8, ptr %40, i64 8
  %44 = load i64, ptr %43, align 8, !tbaa !13
  %45 = add i64 %44, 1
  %46 = icmp eq i64 %44, -1
  br i1 %46, label %CBB_add_u8.exit.thread, label %47

47:                                               ; preds = %42
  %48 = getelementptr inbounds nuw i8, ptr %40, i64 16
  %49 = load i64, ptr %48, align 8, !tbaa !14
  %50 = icmp ugt i64 %45, %49
  br i1 %50, label %51, label %.cbb_buffer_add.exit_crit_edge.i.i18

.cbb_buffer_add.exit_crit_edge.i.i18:             ; preds = %47
  %.pre.i.i19 = load ptr, ptr %40, align 8, !tbaa !6
  br label %61

51:                                               ; preds = %47
  %52 = getelementptr inbounds nuw i8, ptr %40, i64 24
  %53 = load i8, ptr %52, align 8, !tbaa !15
  %.not.i.i.i.i24 = icmp eq i8 %53, 0
  br i1 %.not.i.i.i.i24, label %CBB_add_u8.exit.thread, label %54

54:                                               ; preds = %51
  %55 = shl i64 %49, 1
  %56 = icmp slt i64 %49, 0
  %57 = tail call i64 @llvm.umax.i64(i64 %55, i64 %45)
  %.026.i.i.i.i25 = select i1 %56, i64 %45, i64 %57
  %58 = load ptr, ptr %40, align 8, !tbaa !6
  %59 = tail call ptr @realloc(ptr noundef %58, i64 noundef %.026.i.i.i.i25) #16
  %60 = icmp eq ptr %59, null
  br i1 %60, label %CBB_add_u8.exit.thread, label %.critedge.i.i.i.i26

.critedge.i.i.i.i26:                              ; preds = %54
  store ptr %59, ptr %40, align 8, !tbaa !6
  store i64 %.026.i.i.i.i25, ptr %48, align 8, !tbaa !14
  %.pre.pre.i.i.i27 = load i64, ptr %43, align 8, !tbaa !13
  %.pre20.i.i28 = add i64 %.pre.pre.i.i.i27, 1
  br label %61

61:                                               ; preds = %.critedge.i.i.i.i26, %.cbb_buffer_add.exit_crit_edge.i.i18
  %.pre-phi.i.i21 = phi i64 [ %45, %.cbb_buffer_add.exit_crit_edge.i.i18 ], [ %.pre20.i.i28, %.critedge.i.i.i.i26 ]
  %62 = phi ptr [ %.pre.i.i19, %.cbb_buffer_add.exit_crit_edge.i.i18 ], [ %59, %.critedge.i.i.i.i26 ]
  %.pre.i.i.i22 = phi i64 [ %44, %.cbb_buffer_add.exit_crit_edge.i.i18 ], [ %.pre.pre.i.i.i27, %.critedge.i.i.i.i26 ]
  %63 = getelementptr inbounds nuw i8, ptr %62, i64 %.pre.i.i.i22
  store i64 %.pre-phi.i.i21, ptr %43, align 8, !tbaa !13
  store i8 0, ptr %63, align 1, !tbaa !27
  tail call void @llvm.memset.p0.i64(ptr noundef nonnull align 8 dereferenceable(32) %1, i8 0, i64 32, i1 false)
  %64 = load ptr, ptr %0, align 8, !tbaa !16
  store ptr %64, ptr %1, align 8, !tbaa !16
  %65 = getelementptr inbounds nuw i8, ptr %0, i64 8
  store ptr %1, ptr %65, align 8, !tbaa !23
  %66 = getelementptr inbounds nuw i8, ptr %1, i64 16
  store i64 %37, ptr %66, align 8, !tbaa !25
  %67 = getelementptr inbounds nuw i8, ptr %1, i64 24
  store i8 1, ptr %67, align 8, !tbaa !24
  %68 = getelementptr inbounds nuw i8, ptr %1, i64 25
  store i8 1, ptr %68, align 1, !tbaa !26
  br label %CBB_add_u8.exit.thread

CBB_add_u8.exit.thread:                           ; preds = %51, %54, %42, %39, %32, %22, %25, %13, %10, %8, %61, %6, %3
  %.0 = phi i32 [ 0, %3 ], [ 0, %6 ], [ 1, %61 ], [ 0, %8 ], [ 0, %10 ], [ 0, %13 ], [ 0, %25 ], [ 0, %22 ], [ 0, %32 ], [ 0, %39 ], [ 0, %42 ], [ 0, %54 ], [ 0, %51 ]
  ret i32 %.0
}